; Function Attrs: mustprogress nounwind uwtable
define internal void @_ZN12_GLOBAL__N_120WindowsX86AsmBackendD0Ev(ptr noundef nonnull align 8 dereferenceable(202) %0) unnamed_addr #0 align 2 {
  store ptr getelementptr inbounds inrange(-16, 232) (i8, ptr @_ZTVN12_GLOBAL__N_113X86AsmBackendE, i64 16), ptr %0, align 8
  %2 = getelementptr inbounds i8, ptr %0, i64 56
  %3 = tail call noundef i64 @_ZNK4llvm15SmallVectorBaseIjE4sizeEv(ptr noundef nonnull align 8 dereferenceable(16) %2) #23
  %4 = load ptr, ptr %2, align 8
  %5 = getelementptr inbounds i8, ptr %0, i64 72
  %6 = icmp eq ptr %4, %5
  br i1 %6, label %_ZN4llvm6MCInstD2Ev.exit.i.i, label %7

7:                                                ; preds = %1
  tail call void @free(ptr noundef %4) #23
  br label %_ZN4llvm6MCInstD2Ev.exit.i.i

_ZN4llvm6MCInstD2Ev.exit.i.i:                     ; preds = %7, %1
  %8 = getelementptr inbounds nuw i8, ptr %0, i64 24
  %9 = load ptr, ptr %8, align 8
  %.not.i.i.i = icmp eq ptr %9, null
  br i1 %.not.i.i.i, label %_ZN12_GLOBAL__N_120WindowsX86AsmBackendD2Ev.exit, label %_ZNKSt14default_deleteIKN4llvm11MCInstrInfoEEclEPS2_.exit.i.i.i

_ZNKSt14default_deleteIKN4llvm11MCInstrInfoEEclEPS2_.exit.i.i.i: ; preds = %_ZN4llvm6MCInstD2Ev.exit.i.i
  tail call void @_ZdlPvm(ptr noundef nonnull %9, i64 noundef 48) #26
  br label %_ZN12_GLOBAL__N_120WindowsX86AsmBackendD2Ev.exit

_ZN12_GLOBAL__N_120WindowsX86AsmBackendD2Ev.exit: ; preds = %_ZN4llvm6MCInstD2Ev.exit.i.i, %_ZNKSt14default_deleteIKN4llvm11MCInstrInfoEEclEPS2_.exit.i.i.i
  store ptr null, ptr %8, align 8
  tail call void @_ZN4llvm12MCAsmBackendD2Ev(ptr noundef nonnull align 8 dereferenceable(16) %0) #23
  tail call void @_ZdlPvm(ptr noundef nonnull %0, i64 noundef 208) #26
  ret void
}